target datalayout = "e-m:e-p270:32:32-p271:32:32-p272:64:64-i64:64-i128:128-f80:128-n8:16:32:64-S128"
target triple = "x86_64-pc-linux-gnu"

%struct.ResourceOwnerDesc = type { ptr, i32, i32, ptr, ptr }
%struct.WaitEventSet = type { ptr, i32, i32, ptr, ptr, i32, i8, i32, ptr }

@wait_event_set_resowner_desc = internal constant %struct.ResourceOwnerDesc { ptr @.str.12, i32 3, i32 700, ptr @ResOwnerReleaseWaitEventSet, ptr null }, align 8

; Function Attrs: inlinehint nounwind uwtable
define internal i64 @PointerGetDatum(ptr noundef %0) #5 {
  %2 = alloca ptr, align 8
  store ptr %0, ptr %2, align 8
  %3 = load ptr, ptr %2, align 8
  %4 = ptrtoint ptr %3 to i64
  ret i64 %4
}

; Function Attrs: inlinehint nounwind uwtable
define internal void @ResourceOwnerForgetWaitEventSet(ptr noundef %0, ptr noundef %1) #5 {
  %3 = alloca ptr, align 8
  %4 = alloca ptr, align 8
  store ptr %0, ptr %3, align 8
  store ptr %1, ptr %4, align 8
  %5 = load ptr, ptr %3, align 8
  %6 = load ptr, ptr %4, align 8
  %7 = call i64 @PointerGetDatum(ptr noundef %6)
  call void @ResourceOwnerForget(ptr noundef %5, i64 noundef %7, ptr noundef @wait_event_set_resowner_desc)
  ret void
}

; Function Attrs: nounwind uwtable
define dso_local void @FreeWaitEventSet(ptr noundef %0) #0 {
  %2 = alloca ptr, align 8
  store ptr %0, ptr %2, align 8
  %3 = load ptr, ptr %2, align 8
  %4 = getelementptr inbounds nuw %struct.WaitEventSet, ptr %3, i32 0, i32 0
  %5 = load ptr, ptr %4, align 8
  %6 = icmp ne ptr %5, null
  br i1 %6, label %7, label %14

7:                                                ; preds = %1
  %8 = load ptr, ptr %2, align 8
  %9 = getelementptr inbounds nuw %struct.WaitEventSet, ptr %8, i32 0, i32 0
  %10 = load ptr, ptr %9, align 8
  %11 = load ptr, ptr %2, align 8
  call void @ResourceOwnerForgetWaitEventSet(ptr noundef %10, ptr noundef %11)
  %12 = load ptr, ptr %2, align 8
  %13 = getelementptr inbounds nuw %struct.WaitEventSet, ptr %12, i32 0, i32 0
  store ptr null, ptr %13, align 8
  br label %14

14:                                               ; preds = %7, %1
  %15 = load ptr, ptr %2, align 8
  %16 = getelementptr inbounds nuw %struct.WaitEventSet, ptr %15, i32 0, i32 7
  %17 = load i32, ptr %16, align 8
  %18 = call i32 @close(i32 noundef %17)
  call void @ReleaseExternalFD()
  %19 = load ptr, ptr %2, align 8
  call void @pfree(ptr noundef %19)
  ret void
}