; Function Attrs: nounwind uwtable
define dso_local void @FreeWaitEventSet(ptr noundef %0) local_unnamed_addr #0 {
  %2 = load ptr, ptr %0, align 8
  %.not = icmp eq ptr %2, null
  br i1 %.not, label %5, label %3

3:                                                ; preds = %1
  %4 = ptrtoint ptr %0 to i64
  tail call void @ResourceOwnerForget(ptr noundef nonnull %2, i64 noundef %4, ptr noundef nonnull @wait_event_set_resowner_desc) #14
  store ptr null, ptr %0, align 8
  br label %5

5:                                                ; preds = %3, %1
  %6 = getelementptr inbounds nuw i8, ptr %0, i64 40
  %7 = load i32, ptr %6, align 8
  %8 = tail call i32 @close(i32 noundef %7) #14
  tail call void @ReleaseExternalFD() #14
  tail call void @pfree(ptr noundef nonnull %0) #14
  ret void
}